; Function Attrs: mustprogress nounwind uwtable
define dso_local void @_ZN4llvm10DwarfDebug12addAccelObjCERKNS_9DwarfUnitENS_13DICompileUnit18DebugNameTableKindENS_9StringRefERKNS_3DIEE(ptr noundef nonnull align 8 dereferenceable(5828) %0, ptr noundef nonnull align 8 dereferenceable(328) %1, i32 noundef %2, ptr %3, i64 %4, ptr noundef nonnull align 8 dereferenceable(48) %5) local_unnamed_addr #0 align 2 {
  %7 = getelementptr inbounds nuw i8, ptr %0, i64 3468
  %8 = load i32, ptr %7, align 4
  %9 = icmp eq i32 %8, 2
  br i1 %9, label %10, label %12

10:                                               ; preds = %6
  %11 = getelementptr inbounds nuw i8, ptr %0, i64 5224
  tail call void @_ZN4llvm10DwarfDebug16addAccelNameImplINS_25AppleAccelTableOffsetDataEEEvRKNS_9DwarfUnitENS_13DICompileUnit18DebugNameTableKindERNS_10AccelTableIT_EENS_9StringRefERKNS_3DIEE(ptr noundef nonnull align 8 dereferenceable(5828) %0, ptr noundef nonnull align 8 dereferenceable(328) %1, i32 noundef %2, ptr noundef nonnull align 8 dereferenceable(200) %11, ptr %3, i64 %4, ptr noundef nonnull align 8 dereferenceable(48) %5)
  br label %12

12:                                               ; preds = %10, %6
  ret void
}